; Function Attrs: nounwind uwtable
define noalias nonnull ptr @l_Lean_Compiler_LCNF_Probe_toPass___rarg(ptr noundef %0, ptr noundef %1, i8 noundef zeroext %2) local_unnamed_addr #0 {
  tail call void @lean_inc_heartbeat() #4
  %4 = tail call noalias ptr @mi_malloc_small(i64 noundef 40) #4
  %5 = icmp eq ptr %4, null
  br i1 %5, label %6, label %lean_alloc_closure.exit

6:                                                ; preds = %3
  tail call void @lean_internal_panic_out_of_memory() #5
  unreachable

lean_alloc_closure.exit:                          ; preds = %3
  %7 = getelementptr inbounds nuw i8, ptr %4, i64 4
  store i32 1, ptr %4, align 4, !tbaa !4
  store i32 -184549336, ptr %7, align 4
  %8 = getelementptr inbounds nuw i8, ptr %4, i64 8
  store ptr @l_Lean_Compiler_LCNF_Probe_toPass___elambda__1___rarg, ptr %8, align 8, !tbaa !10
  %9 = getelementptr inbounds nuw i8, ptr %4, i64 16
  store i16 8, ptr %9, align 8, !tbaa !14
  %10 = getelementptr inbounds nuw i8, ptr %4, i64 18
  store i16 2, ptr %10, align 2, !tbaa !14
  %11 = getelementptr inbounds nuw i8, ptr %4, i64 24
  store ptr %0, ptr %11, align 8, !tbaa !10
  %12 = getelementptr inbounds nuw i8, ptr %4, i64 32
  store ptr %1, ptr %12, align 8, !tbaa !10
  %13 = load ptr, ptr @l_Lean_Compiler_LCNF_Probe_toPass___rarg___closed__1, align 8, !tbaa !10
  tail call void @lean_inc_heartbeat() #4
  %14 = tail call noalias ptr @mi_malloc_small(i64 noundef 40) #4
  %15 = icmp eq ptr %14, null
  br i1 %15, label %16, label %lean_alloc_ctor.exit

16:                                               ; preds = %lean_alloc_closure.exit
  tail call void @lean_internal_panic_out_of_memory() #5
  unreachable

lean_alloc_ctor.exit:                             ; preds = %lean_alloc_closure.exit
  %17 = getelementptr inbounds nuw i8, ptr %14, i64 4
  %18 = getelementptr inbounds nuw i8, ptr %14, i64 32
  store i64 0, ptr %18, align 8, !tbaa !12
  store i32 1, ptr %14, align 4, !tbaa !4
  store i32 196648, ptr %17, align 4
  %19 = getelementptr inbounds nuw i8, ptr %14, i64 8
  store ptr inttoptr (i64 1 to ptr), ptr %19, align 8, !tbaa !10
  %20 = getelementptr inbounds nuw i8, ptr %14, i64 16
  store ptr %13, ptr %20, align 8, !tbaa !10
  %21 = getelementptr inbounds nuw i8, ptr %14, i64 24
  store ptr %4, ptr %21, align 8, !tbaa !10
  store i8 %2, ptr %18, align 1, !tbaa !22
  %22 = getelementptr inbounds nuw i8, ptr %14, i64 33
  store i8 %2, ptr %22, align 1, !tbaa !22
  ret ptr %14
}